; ModuleID = '24/149.c'
source_filename = "24/149.c"
target datalayout = "e-m:e-p270:32:32-p271:32:32-p272:64:64-i64:64-f80:128-n8:16:32:64-S128"
target triple = "x86_64-pc-linux-gnu"

@.str = private unnamed_addr constant [3 x i8] c"%c\00", align 1
@.str.1 = private unnamed_addr constant [3 x i8] c"\0A\0A\00", align 1

; Function Attrs: noinline nounwind uwtable
define dso_local void @main() #0 {
  %1 = alloca [500 x i8], align 16
  %2 = alloca i32, align 4
  %3 = alloca i32, align 4
  %4 = alloca [500 x i32], align 16
  %5 = alloca i32, align 4
  %6 = alloca i32, align 4
  %7 = alloca i32, align 4
  %8 = alloca i32, align 4
  store i32 1, i32* %3, align 4
  store i32 0, i32* %7, align 4
  store i32 0, i32* %8, align 4
  %9 = getelementptr inbounds [500 x i8], [500 x i8]* %1, i64 0, i64 0
  %10 = call i32 (i8*, ...) bitcast (i32 (...)* @gets to i32 (i8*, ...)*)(i8* %9)
  %11 = getelementptr inbounds [500 x i32], [500 x i32]* %4, i64 0, i64 0
  store i32 -1, i32* %11, align 16
  store i32 0, i32* %2, align 4
  br label %12

12:                                               ; preds = %34, %0
  %13 = load i32, i32* %2, align 4
  %14 = sext i32 %13 to i64
  %15 = getelementptr inbounds [500 x i8], [500 x i8]* %1, i64 0, i64 %14
  %16 = load i8, i8* %15, align 1
  %17 = sext i8 %16 to i32
  %18 = icmp ne i32 %17, 0
  br i1 %18, label %19, label %37

19:                                               ; preds = %12
  %20 = load i32, i32* %2, align 4
  %21 = sext i32 %20 to i64
  %22 = getelementptr inbounds [500 x i8], [500 x i8]* %1, i64 0, i64 %21
  %23 = load i8, i8* %22, align 1
  %24 = sext i8 %23 to i32
  %25 = icmp eq i32 %24, 32
  br i1 %25, label %26, label %33

26:                                               ; preds = %19
  %27 = load i32, i32* %2, align 4
  %28 = load i32, i32* %3, align 4
  %29 = sext i32 %28 to i64
  %30 = getelementptr inbounds [500 x i32], [500 x i32]* %4, i64 0, i64 %29
  store i32 %27, i32* %30, align 4
  %31 = load i32, i32* %3, align 4
  %32 = add nsw i32 %31, 1
  store i32 %32, i32* %3, align 4
  br label %33

33:                                               ; preds = %26, %19
  br label %34

34:                                               ; preds = %33
  %35 = load i32, i32* %2, align 4
  %36 = add nsw i32 %35, 1
  store i32 %36, i32* %2, align 4
  br label %12

37:                                               ; preds = %12
  %38 = load i32, i32* %2, align 4
  %39 = load i32, i32* %3, align 4
  %40 = sext i32 %39 to i64
  %41 = getelementptr inbounds [500 x i32], [500 x i32]* %4, i64 0, i64 %40
  store i32 %38, i32* %41, align 4
  %42 = getelementptr inbounds [500 x i32], [500 x i32]* %4, i64 0, i64 1
  %43 = load i32, i32* %42, align 4
  %44 = getelementptr inbounds [500 x i32], [500 x i32]* %4, i64 0, i64 0
  %45 = load i32, i32* %44, align 16
  %46 = sub nsw i32 %43, %45
  store i32 %46, i32* %5, align 4
  %47 = getelementptr inbounds [500 x i32], [500 x i32]* %4, i64 0, i64 1
  %48 = load i32, i32* %47, align 4
  %49 = getelementptr inbounds [500 x i32], [500 x i32]* %4, i64 0, i64 0
  %50 = load i32, i32* %49, align 16
  %51 = sub nsw i32 %48, %50
  store i32 %51, i32* %6, align 4
  store i32 1, i32* %2, align 4
  br label %52

52:                                               ; preds = %109, %37
  %53 = load i32, i32* %2, align 4
  %54 = load i32, i32* %3, align 4
  %55 = icmp sle i32 %53, %54
  br i1 %55, label %56, label %112

56:                                               ; preds = %52
  %57 = load i32, i32* %2, align 4
  %58 = sext i32 %57 to i64
  %59 = getelementptr inbounds [500 x i32], [500 x i32]* %4, i64 0, i64 %58
  %60 = load i32, i32* %59, align 4
  %61 = load i32, i32* %2, align 4
  %62 = sub nsw i32 %61, 1
  %63 = sext i32 %62 to i64
  %64 = getelementptr inbounds [500 x i32], [500 x i32]* %4, i64 0, i64 %63
  %65 = load i32, i32* %64, align 4
  %66 = sub nsw i32 %60, %65
  %67 = load i32, i32* %5, align 4
  %68 = icmp sgt i32 %66, %67
  br i1 %68, label %69, label %82

69:                                               ; preds = %56
  %70 = load i32, i32* %2, align 4
  %71 = sext i32 %70 to i64
  %72 = getelementptr inbounds [500 x i32], [500 x i32]* %4, i64 0, i64 %71
  %73 = load i32, i32* %72, align 4
  %74 = load i32, i32* %2, align 4
  %75 = sub nsw i32 %74, 1
  %76 = sext i32 %75 to i64
  %77 = getelementptr inbounds [500 x i32], [500 x i32]* %4, i64 0, i64 %76
  %78 = load i32, i32* %77, align 4
  %79 = sub nsw i32 %73, %78
  store i32 %79, i32* %5, align 4
  %80 = load i32, i32* %2, align 4
  %81 = sub nsw i32 %80, 1
  store i32 %81, i32* %7, align 4
  br label %82

82:                                               ; preds = %69, %56
  %83 = load i32, i32* %2, align 4
  %84 = sext i32 %83 to i64
  %85 = getelementptr inbounds [500 x i32], [500 x i32]* %4, i64 0, i64 %84
  %86 = load i32, i32* %85, align 4
  %87 = load i32, i32* %2, align 4
  %88 = sub nsw i32 %87, 1
  %89 = sext i32 %88 to i64
  %90 = getelementptr inbounds [500 x i32], [500 x i32]* %4, i64 0, i64 %89
  %91 = load i32, i32* %90, align 4
  %92 = sub nsw i32 %86, %91
  %93 = load i32, i32* %6, align 4
  %94 = icmp slt i32 %92, %93
  br i1 %94, label %95, label %108

95:                                               ; preds = %82
  %96 = load i32, i32* %2, align 4
  %97 = sext i32 %96 to i64
  %98 = getelementptr inbounds [500 x i32], [500 x i32]* %4, i64 0, i64 %97
  %99 = load i32, i32* %98, align 4
  %100 = load i32, i32* %2, align 4
  %101 = sub nsw i32 %100, 1
  %102 = sext i32 %101 to i64
  %103 = getelementptr inbounds [500 x i32], [500 x i32]* %4, i64 0, i64 %102
  %104 = load i32, i32* %103, align 4
  %105 = sub nsw i32 %99, %104
  store i32 %105, i32* %6, align 4
  %106 = load i32, i32* %2, align 4
  %107 = sub nsw i32 %106, 1
  store i32 %107, i32* %8, align 4
  br label %108

108:                                              ; preds = %95, %82
  br label %109

109:                                              ; preds = %108
  %110 = load i32, i32* %2, align 4
  %111 = add nsw i32 %110, 1
  store i32 %111, i32* %2, align 4
  br label %52

112:                                              ; preds = %52
  %113 = load i32, i32* %7, align 4
  %114 = sext i32 %113 to i64
  %115 = getelementptr inbounds [500 x i32], [500 x i32]* %4, i64 0, i64 %114
  %116 = load i32, i32* %115, align 4
  %117 = add nsw i32 %116, 1
  store i32 %117, i32* %2, align 4
  br label %118

118:                                              ; preds = %133, %112
  %119 = load i32, i32* %2, align 4
  %120 = load i32, i32* %7, align 4
  %121 = add nsw i32 %120, 1
  %122 = sext i32 %121 to i64
  %123 = getelementptr inbounds [500 x i32], [500 x i32]* %4, i64 0, i64 %122
  %124 = load i32, i32* %123, align 4
  %125 = icmp slt i32 %119, %124
  br i1 %125, label %126, label %136

126:                                              ; preds = %118
  %127 = load i32, i32* %2, align 4
  %128 = sext i32 %127 to i64
  %129 = getelementptr inbounds [500 x i8], [500 x i8]* %1, i64 0, i64 %128
  %130 = load i8, i8* %129, align 1
  %131 = sext i8 %130 to i32
  %132 = call i32 (i8*, ...) @printf(i8* getelementptr inbounds ([3 x i8], [3 x i8]* @.str, i64 0, i64 0), i32 %131)
  br label %133

133:                                              ; preds = %126
  %134 = load i32, i32* %2, align 4
  %135 = add nsw i32 %134, 1
  store i32 %135, i32* %2, align 4
  br label %118

136:                                              ; preds = %118
  %137 = call i32 (i8*, ...) @printf(i8* getelementptr inbounds ([3 x i8], [3 x i8]* @.str.1, i64 0, i64 0))
  %138 = load i32, i32* %8, align 4
  %139 = sext i32 %138 to i64
  %140 = getelementptr inbounds [500 x i32], [500 x i32]* %4, i64 0, i64 %139
  %141 = load i32, i32* %140, align 4
  %142 = add nsw i32 %141, 1
  store i32 %142, i32* %2, align 4
  br label %143

143:                                              ; preds = %158, %136
  %144 = load i32, i32* %2, align 4
  %145 = load i32, i32* %8, align 4
  %146 = add nsw i32 %145, 1
  %147 = sext i32 %146 to i64
  %148 = getelementptr inbounds [500 x i32], [500 x i32]* %4, i64 0, i64 %147
  %149 = load i32, i32* %148, align 4
  %150 = icmp slt i32 %144, %149
  br i1 %150, label %151, label %161

151:                                              ; preds = %143
  %152 = load i32, i32* %2, align 4
  %153 = sext i32 %152 to i64
  %154 = getelementptr inbounds [500 x i8], [500 x i8]* %1, i64 0, i64 %153
  %155 = load i8, i8* %154, align 1
  %156 = sext i8 %155 to i32
  %157 = call i32 (i8*, ...) @printf(i8* getelementptr inbounds ([3 x i8], [3 x i8]* @.str, i64 0, i64 0), i32 %156)
  br label %158

158:                                              ; preds = %151
  %159 = load i32, i32* %2, align 4
  %160 = add nsw i32 %159, 1
  store i32 %160, i32* %2, align 4
  br label %143

161:                                              ; preds = %143
  ret void
}

declare dso_local i32 @gets(...) #1

declare dso_local i32 @printf(i8*, ...) #1


!llvm.module.flags = !{!0}
!llvm.ident = !{!1}

!0 = !{i32 1, !"wchar_size", i32 4}
!1 = !{!"clang version 10.0.0-4ubuntu1 "}
